target datalayout = "e-m:e-p270:32:32-p271:32:32-p272:64:64-i64:64-i128:128-f80:128-n8:16:32:64-S128"
target triple = "x86_64-pc-linux-gnu"

%struct.REParseState = type { %struct.DynBuf, ptr, ptr, ptr, i32, i32, i32, i32, i32, i32, i32, ptr, %struct.DynBuf, %union.anon }
%struct.DynBuf = type { ptr, i64, i64, i32, ptr, ptr }
%union.anon = type { [128 x i8] }

; Function Attrs: nounwind uwtable
define internal i32 @find_group_name(ptr noundef %0, ptr noundef %1) #0 {
  %3 = alloca i32, align 4
  %4 = alloca ptr, align 8
  %5 = alloca ptr, align 8
  %6 = alloca ptr, align 8
  %7 = alloca ptr, align 8
  %8 = alloca i64, align 8
  %9 = alloca i64, align 8
  %10 = alloca i32, align 4
  store ptr %0, ptr %4, align 8
  store ptr %1, ptr %5, align 8
  %11 = load ptr, ptr %4, align 8
  %12 = getelementptr inbounds %struct.REParseState, ptr %11, i32 0, i32 12
  %13 = getelementptr inbounds %struct.DynBuf, ptr %12, i32 0, i32 0
  %14 = load ptr, ptr %13, align 8
  store ptr %14, ptr %6, align 8
  %15 = load ptr, ptr %6, align 8
  %16 = icmp ne ptr %15, null
  br i1 %16, label %18, label %17

17:                                               ; preds = %2
  store i32 -1, ptr %3, align 4
  br label %56

18:                                               ; preds = %2
  %19 = load ptr, ptr %4, align 8
  %20 = getelementptr inbounds %struct.REParseState, ptr %19, i32 0, i32 12
  %21 = getelementptr inbounds %struct.DynBuf, ptr %20, i32 0, i32 0
  %22 = load ptr, ptr %21, align 8
  %23 = load ptr, ptr %4, align 8
  %24 = getelementptr inbounds %struct.REParseState, ptr %23, i32 0, i32 12
  %25 = getelementptr inbounds %struct.DynBuf, ptr %24, i32 0, i32 1
  %26 = load i64, ptr %25, align 8
  %27 = getelementptr i8, ptr %22, i64 %26
  store ptr %27, ptr %7, align 8
  %28 = load ptr, ptr %5, align 8
  %29 = call i64 @strlen(ptr noundef %28) #10
  store i64 %29, ptr %9, align 8
  store i32 1, ptr %10, align 4
  br label %30

30:                                               ; preds = %48, %18
  %31 = load ptr, ptr %6, align 8
  %32 = load ptr, ptr %7, align 8
  %33 = icmp ult ptr %31, %32
  br i1 %33, label %34, label %55

34:                                               ; preds = %30
  %35 = load ptr, ptr %6, align 8
  %36 = call i64 @strlen(ptr noundef %35) #10
  store i64 %36, ptr %8, align 8
  %37 = load i64, ptr %8, align 8
  %38 = load i64, ptr %9, align 8
  %39 = icmp eq i64 %37, %38
  br i1 %39, label %40, label %48

40:                                               ; preds = %34
  %41 = load ptr, ptr %5, align 8
  %42 = load ptr, ptr %6, align 8
  %43 = load i64, ptr %9, align 8
  %44 = call i32 @memcmp(ptr noundef %41, ptr noundef %42, i64 noundef %43) #10
  %45 = icmp eq i32 %44, 0
  br i1 %45, label %46, label %48

46:                                               ; preds = %40
  %47 = load i32, ptr %10, align 4
  store i32 %47, ptr %3, align 4
  br label %56

48:                                               ; preds = %40, %34
  %49 = load i64, ptr %8, align 8
  %50 = add i64 %49, 1
  %51 = load ptr, ptr %6, align 8
  %52 = getelementptr i8, ptr %51, i64 %50
  store ptr %52, ptr %6, align 8
  %53 = load i32, ptr %10, align 4
  %54 = add i32 %53, 1
  store i32 %54, ptr %10, align 4
  br label %30, !llvm.loop !20

55:                                               ; preds = %30
  store i32 -1, ptr %3, align 4
  br label %56

56:                                               ; preds = %55, %46, %17
  %57 = load i32, ptr %3, align 4
  ret i32 %57
}