; Function Attrs: nofree nounwind memory(read, inaccessiblemem: none) uwtable
define internal fastcc i32 @find_group_name(ptr nocapture noundef readonly %0, ptr nocapture noundef readonly %1) unnamed_addr #8 {
  %3 = getelementptr inbounds i8, ptr %0, i64 112
  %4 = load ptr, ptr %3, align 8
  %.not = icmp eq ptr %4, null
  br i1 %.not, label %.loopexit, label %5

5:                                                ; preds = %2
  %6 = getelementptr inbounds i8, ptr %0, i64 120
  %7 = load i64, ptr %6, align 8
  %8 = getelementptr i8, ptr %4, i64 %7
  %9 = tail call i64 @strlen(ptr noundef nonnull dereferenceable(1) %1) #19
  %10 = icmp ult ptr %4, %8
  br i1 %10, label %.lr.ph, label %.loopexit

.lr.ph:                                           ; preds = %5, %15
  %.022 = phi i32 [ %18, %15 ], [ 1, %5 ]
  %.01821 = phi ptr [ %17, %15 ], [ %4, %5 ]
  %11 = tail call i64 @strlen(ptr noundef nonnull dereferenceable(1) %.01821) #19
  %12 = icmp eq i64 %11, %9
  br i1 %12, label %13, label %15

13:                                               ; preds = %.lr.ph
  %bcmp = tail call i32 @bcmp(ptr %1, ptr %.01821, i64 %9)
  %14 = icmp eq i32 %bcmp, 0
  br i1 %14, label %.loopexit, label %15

15:                                               ; preds = %13, %.lr.ph
  %16 = add i64 %11, 1
  %17 = getelementptr i8, ptr %.01821, i64 %16
  %18 = add i32 %.022, 1
  %19 = icmp ult ptr %17, %8
  br i1 %19, label %.lr.ph, label %.loopexit, !llvm.loop !22

.loopexit:                                        ; preds = %13, %15, %5, %2
  %.017 = phi i32 [ -1, %2 ], [ -1, %5 ], [ %.022, %13 ], [ -1, %15 ]
  ret i32 %.017
}